; ModuleID = 'source-C-CXX/6/119.c'
source_filename = "source-C-CXX/6/119.c"
target datalayout = "e-m:e-p270:32:32-p271:32:32-p272:64:64-i64:64-f80:128-n8:16:32:64-S128"
target triple = "x86_64-pc-linux-gnu"

@.str.1 = private unnamed_addr constant [3 x i8] c"%s\00", align 1

; Function Attrs: nounwind sspstrong uwtable
define dso_local i32 @main() local_unnamed_addr #0 {
  %1 = alloca [100 x i8], align 16
  %2 = alloca [50 x i8], align 16
  %3 = alloca [50 x i8], align 16
  %4 = getelementptr inbounds [100 x i8], [100 x i8]* %1, i64 0, i64 0
  call void @llvm.lifetime.start.p0i8(i64 100, i8* nonnull %4) #6
  %5 = getelementptr inbounds [50 x i8], [50 x i8]* %2, i64 0, i64 0
  call void @llvm.lifetime.start.p0i8(i64 50, i8* nonnull %5) #6
  %6 = getelementptr inbounds [50 x i8], [50 x i8]* %3, i64 0, i64 0
  call void @llvm.lifetime.start.p0i8(i64 50, i8* nonnull %6) #6
  %7 = call i32 (i8*, ...) bitcast (i32 (...)* @gets to i32 (i8*, ...)*)(i8* nonnull %4) #6
  %8 = call i32 (i8*, ...) bitcast (i32 (...)* @gets to i32 (i8*, ...)*)(i8* nonnull %5) #6
  %9 = call i32 (i8*, ...) bitcast (i32 (...)* @gets to i32 (i8*, ...)*)(i8* nonnull %6) #6
  %10 = call i64 @strlen(i8* noundef nonnull %5) #7
  %11 = load i8, i8* %5, align 16
  %12 = getelementptr inbounds [50 x i8], [50 x i8]* %2, i64 0, i64 1
  %13 = load i8, i8* %12, align 1
  %14 = load i8, i8* %4, align 16, !tbaa !5
  %15 = icmp eq i8 %14, 0
  br i1 %15, label %82, label %16

16:                                               ; preds = %0
  %17 = icmp eq i8 %13, 0
  br i1 %17, label %18, label %27

18:                                               ; preds = %16, %22
  %19 = phi i64 [ %23, %22 ], [ 0, %16 ]
  %20 = phi i8 [ %25, %22 ], [ %14, %16 ]
  %21 = icmp eq i8 %11, %20
  br i1 %21, label %35, label %22

22:                                               ; preds = %18
  %23 = add nuw i64 %19, 1
  %24 = getelementptr inbounds [100 x i8], [100 x i8]* %1, i64 0, i64 %23
  %25 = load i8, i8* %24, align 1, !tbaa !5
  %26 = icmp eq i8 %25, 0
  br i1 %26, label %82, label %18, !llvm.loop !8

27:                                               ; preds = %16, %52
  %28 = phi i64 [ %53, %52 ], [ 0, %16 ]
  %29 = phi i8 [ %55, %52 ], [ %14, %16 ]
  %30 = icmp eq i8 %11, %29
  br i1 %30, label %44, label %52

31:                                               ; preds = %44
  %32 = getelementptr inbounds [50 x i8], [50 x i8]* %2, i64 0, i64 %51
  %33 = load i8, i8* %32, align 1, !tbaa !5
  %34 = icmp eq i8 %33, 0
  br i1 %34, label %35, label %44, !llvm.loop !10

35:                                               ; preds = %31, %18
  %36 = phi i64 [ %19, %18 ], [ %28, %31 ]
  %37 = trunc i64 %36 to i32
  %38 = icmp eq i32 %37, 0
  br i1 %38, label %65, label %39

39:                                               ; preds = %35
  %40 = and i64 %36, 4294967295
  %41 = sext i8 %14 to i32
  %42 = call i32 @putchar(i32 %41)
  %43 = icmp eq i64 %40, 1
  br i1 %43, label %65, label %57, !llvm.loop !11

44:                                               ; preds = %27, %31
  %45 = phi i64 [ %51, %31 ], [ 1, %27 ]
  %46 = phi i8 [ %33, %31 ], [ %13, %27 ]
  %47 = add nuw nsw i64 %45, %28
  %48 = getelementptr inbounds [100 x i8], [100 x i8]* %1, i64 0, i64 %47
  %49 = load i8, i8* %48, align 1, !tbaa !5
  %50 = icmp eq i8 %46, %49
  %51 = add nuw i64 %45, 1
  br i1 %50, label %31, label %52

52:                                               ; preds = %44, %27
  %53 = add nuw nsw i64 %28, 1
  %54 = getelementptr inbounds [100 x i8], [100 x i8]* %1, i64 0, i64 %53
  %55 = load i8, i8* %54, align 1, !tbaa !5
  %56 = icmp eq i8 %55, 0
  br i1 %56, label %82, label %27, !llvm.loop !8

57:                                               ; preds = %39, %57
  %58 = phi i64 [ %63, %57 ], [ 1, %39 ]
  %59 = getelementptr inbounds [100 x i8], [100 x i8]* %1, i64 0, i64 %58
  %60 = load i8, i8* %59, align 1, !tbaa !5
  %61 = sext i8 %60 to i32
  %62 = call i32 @putchar(i32 %61)
  %63 = add nuw nsw i64 %58, 1
  %64 = icmp eq i64 %63, %40
  br i1 %64, label %65, label %57, !llvm.loop !11

65:                                               ; preds = %57, %39, %35
  %66 = call i32 (i8*, ...) @printf(i8* nonnull dereferenceable(1) getelementptr inbounds ([3 x i8], [3 x i8]* @.str.1, i64 0, i64 0), i8* nonnull %6)
  %67 = add i64 %36, %10
  %68 = shl i64 %67, 32
  %69 = ashr exact i64 %68, 32
  %70 = getelementptr inbounds [100 x i8], [100 x i8]* %1, i64 0, i64 %69
  %71 = load i8, i8* %70, align 1, !tbaa !5
  %72 = icmp eq i8 %71, 0
  br i1 %72, label %84, label %73

73:                                               ; preds = %65, %73
  %74 = phi i64 [ %78, %73 ], [ %69, %65 ]
  %75 = phi i8 [ %80, %73 ], [ %71, %65 ]
  %76 = sext i8 %75 to i32
  %77 = call i32 @putchar(i32 %76)
  %78 = add i64 %74, 1
  %79 = getelementptr inbounds [100 x i8], [100 x i8]* %1, i64 0, i64 %78
  %80 = load i8, i8* %79, align 1, !tbaa !5
  %81 = icmp eq i8 %80, 0
  br i1 %81, label %84, label %73, !llvm.loop !12

82:                                               ; preds = %52, %22, %0
  %83 = call i32 (i8*, ...) @printf(i8* nonnull dereferenceable(1) getelementptr inbounds ([3 x i8], [3 x i8]* @.str.1, i64 0, i64 0), i8* nonnull %4)
  br label %84

84:                                               ; preds = %73, %65, %82
  call void @llvm.lifetime.end.p0i8(i64 50, i8* nonnull %6) #6
  call void @llvm.lifetime.end.p0i8(i64 50, i8* nonnull %5) #6
  call void @llvm.lifetime.end.p0i8(i64 100, i8* nonnull %4) #6
  ret i32 0
}

; Function Attrs: argmemonly mustprogress nofree nosync nounwind willreturn
declare void @llvm.lifetime.start.p0i8(i64 immarg, i8* nocapture) #1

declare i32 @gets(...) local_unnamed_addr #2

; Function Attrs: argmemonly mustprogress nofree nounwind readonly willreturn
declare i64 @strlen(i8* nocapture) local_unnamed_addr #3

; Function Attrs: nofree nounwind
declare noundef i32 @printf(i8* nocapture noundef readonly, ...) local_unnamed_addr #4

; Function Attrs: argmemonly mustprogress nofree nosync nounwind willreturn
declare void @llvm.lifetime.end.p0i8(i64 immarg, i8* nocapture) #1

; Function Attrs: nofree nounwind
declare noundef i32 @putchar(i32 noundef) local_unnamed_addr #5


!llvm.module.flags = !{!0, !1, !2, !3}
!llvm.ident = !{!4}

!0 = !{i32 1, !"wchar_size", i32 4}
!1 = !{i32 7, !"PIC Level", i32 2}
!2 = !{i32 7, !"PIE Level", i32 2}
!3 = !{i32 7, !"uwtable", i32 1}
!4 = !{!"clang version 13.0.0"}
!5 = !{!6, !6, i64 0}
!6 = !{!"omnipotent char", !7, i64 0}
!7 = !{!"Simple C/C++ TBAA"}
!8 = distinct !{!8, !9}
!9 = !{!"llvm.loop.mustprogress"}
!10 = distinct !{!10, !9}
!11 = distinct !{!11, !9}
!12 = distinct !{!12, !9}
